; Function Attrs: nounwind uwtable
define void @fillInSwapArray(ptr noundef readonly captures(none) %0) local_unnamed_addr #1 {
  %2 = getelementptr inbounds nuw i8, ptr %0, i64 20
  %3 = load i32, ptr %2, align 4, !tbaa !21
  %4 = load i32, ptr %0, align 8, !tbaa !23
  %5 = add nsw i32 %4, 2
  %6 = sext i32 %5 to i64
  %7 = shl nsw i64 %6, 3
  %8 = tail call noalias ptr @malloc(i64 noundef %7) #10
  %9 = shl nsw i64 %6, 2
  %10 = tail call noalias ptr @malloc(i64 noundef %9) #10
  %11 = add nsw i32 %4, 100
  store i32 %11, ptr %10, align 4, !tbaa !15
  %.not23.i = icmp slt i32 %4, 1
  br i1 %.not23.i, label %.loopexit16, label %.lr.ph.preheader.i

.lr.ph.preheader.i:                               ; preds = %1
  %12 = add nuw i32 %4, 1
  %wide.trip.count.i = zext i32 %12 to i64
  br label %.lr.ph.i

.lr.ph.i:                                         ; preds = %.lr.ph.i, %.lr.ph.preheader.i
  %indvars.iv.i = phi i64 [ 1, %.lr.ph.preheader.i ], [ %indvars.iv.next.i, %.lr.ph.i ]
  %13 = getelementptr inbounds nuw %struct.varInfo, ptr %8, i64 %indvars.iv.i, i32 1
  %14 = trunc nuw nsw i64 %indvars.iv.i to i32
  store i32 %14, ptr %13, align 4, !tbaa !12
  %15 = getelementptr inbounds nuw %struct.varInfo, ptr %8, i64 %indvars.iv.i
  store i32 -1, ptr %15, align 4, !tbaa !14
  %16 = getelementptr inbounds nuw i32, ptr %10, i64 %indvars.iv.i
  store i32 %14, ptr %16, align 4, !tbaa !15
  %indvars.iv.next.i = add nuw nsw i64 %indvars.iv.i, 1
  %exitcond.not.i = icmp eq i64 %indvars.iv.next.i, %wide.trip.count.i
  br i1 %exitcond.not.i, label %setSwapInfoPtr.exit, label %.lr.ph.i, !llvm.loop !24

setSwapInfoPtr.exit:                              ; preds = %.lr.ph.i
  %17 = add nuw nsw i32 %4, 10
  %18 = zext nneg i32 %4 to i64
  %19 = getelementptr i32, ptr %10, i64 %18
  %20 = getelementptr i8, ptr %19, i64 4
  store i32 %17, ptr %20, align 4, !tbaa !15
  %.not = icmp eq i32 %4, 1
  br i1 %.not, label %.loopexit16, label %.lr.ph.i13.preheader.lr.ph

.lr.ph.i13.preheader.lr.ph:                       ; preds = %setSwapInfoPtr.exit
  %21 = getelementptr inbounds nuw i8, ptr %0, i64 8
  %22 = sext i32 %3 to i64
  br label %.lr.ph.i13.preheader.us

.lr.ph.i13.preheader.us:                          ; preds = %.loopexit.us, %.lr.ph.i13.preheader.lr.ph
  %indvars.iv = phi i64 [ %indvars.iv.next, %.loopexit.us ], [ %22, %.lr.ph.i13.preheader.lr.ph ]
  %indvars.iv.next = add nsw i64 %indvars.iv, -1
  br label %.lr.ph.i13.us

.lr.ph.i13.us:                                    ; preds = %33, %.lr.ph.i13.preheader.us
  %.04957.i.us = phi i32 [ %34, %33 ], [ %4, %.lr.ph.i13.preheader.us ]
  %23 = zext nneg i32 %.04957.i.us to i64
  %24 = getelementptr inbounds nuw %struct.varInfo, ptr %8, i64 %23
  %25 = getelementptr inbounds nuw i8, ptr %24, i64 4
  %26 = load i32, ptr %25, align 4, !tbaa !12
  %27 = load i32, ptr %24, align 4, !tbaa !14
  %28 = add nsw i32 %27, %26
  %29 = sext i32 %28 to i64
  %30 = getelementptr inbounds i32, ptr %10, i64 %29
  %31 = load i32, ptr %30, align 4, !tbaa !15
  %32 = icmp sgt i32 %.04957.i.us, %31
  br i1 %32, label %36, label %33

33:                                               ; preds = %.lr.ph.i13.us
  %34 = add nsw i32 %.04957.i.us, -1
  %35 = icmp sgt i32 %.04957.i.us, 2
  br i1 %35, label %.lr.ph.i13.us, label %.loopexit16, !llvm.loop !20

36:                                               ; preds = %.lr.ph.i13.us
  %37 = getelementptr inbounds nuw i8, ptr %24, i64 4
  %38 = getelementptr inbounds i32, ptr %10, i64 %29
  store i32 %28, ptr %37, align 4, !tbaa !12
  %39 = getelementptr inbounds nuw %struct.varInfo, ptr %8, i64 %23, i32 1
  store i32 %.04957.i.us, ptr %38, align 4, !tbaa !15
  %40 = sext i32 %26 to i64
  %41 = getelementptr inbounds i32, ptr %10, i64 %40
  store i32 %31, ptr %41, align 4, !tbaa !15
  %42 = sext i32 %31 to i64
  %43 = getelementptr inbounds %struct.varInfo, ptr %8, i64 %42, i32 1
  store i32 %26, ptr %43, align 4, !tbaa !12
  %44 = icmp sgt i32 %4, %.04957.i.us
  br i1 %44, label %.lr.ph59.i.us, label %.loopexit.us

.lr.ph59.i.us:                                    ; preds = %36, %.lr.ph59.i.us
  %.04858.i.us = phi i32 [ %49, %.lr.ph59.i.us ], [ %4, %36 ]
  %45 = zext nneg i32 %.04858.i.us to i64
  %46 = getelementptr inbounds nuw %struct.varInfo, ptr %8, i64 %45
  %47 = load i32, ptr %46, align 4, !tbaa !14
  %48 = sub nsw i32 0, %47
  store i32 %48, ptr %46, align 4, !tbaa !14
  %49 = add nsw i32 %.04858.i.us, -1
  %50 = icmp sgt i32 %49, %.04957.i.us
  br i1 %50, label %.lr.ph59.i.us, label %.loopexit.us, !llvm.loop !16

.loopexit.us:                                     ; preds = %.lr.ph59.i.us, %36
  %51 = load i32, ptr %39, align 4, !tbaa !12
  %52 = load ptr, ptr %21, align 8, !tbaa !25
  %53 = getelementptr inbounds i32, ptr %52, i64 %indvars.iv.next
  %.lcssa52. = tail call i32 @llvm.smin.i32(i32 %26, i32 %51)
  %54 = add nsw i32 %.lcssa52., -1
  store i32 %54, ptr %53, align 4, !tbaa !15
  br label %.lr.ph.i13.preheader.us

.loopexit16:                                      ; preds = %33, %1, %setSwapInfoPtr.exit
  tail call void @free(ptr noundef %8) #11
  tail call void @free(ptr noundef nonnull %10) #11
  ret void
}